; Function Attrs: nounwind uwtable
define internal range(i32 -1, 1) i32 @H5D__earray_idx_open(ptr noundef readonly captures(none) %0) #0 {
  %2 = alloca %struct.H5D_earray_ctx_ud_t, align 8
  call void @llvm.lifetime.start.p0(i64 16, ptr nonnull %2) #11
  %3 = load i8, ptr @H5D_init_g, align 1, !tbaa !3, !range !7, !noundef !8
  %4 = trunc nuw i8 %3 to i1
  %5 = load i8, ptr @H5_libterm_g, align 1, !range !7
  %6 = trunc nuw i8 %5 to i1
  %7 = xor i1 %6, true
  %8 = select i1 %4, i1 true, i1 %7
  br i1 %8, label %9, label %39, !prof !9

9:                                                ; preds = %1
  %10 = load ptr, ptr %0, align 8, !tbaa !34
  store ptr %10, ptr %2, align 8, !tbaa !41
  %11 = getelementptr inbounds nuw i8, ptr %0, i64 16
  %12 = load ptr, ptr %11, align 8, !tbaa !14
  %13 = getelementptr inbounds nuw i8, ptr %12, i64 148
  %14 = load i32, ptr %13, align 4, !tbaa !29
  %15 = getelementptr inbounds nuw i8, ptr %2, i64 8
  store i32 %14, ptr %15, align 8, !tbaa !43
  %16 = getelementptr inbounds nuw i8, ptr %0, i64 24
  %17 = load ptr, ptr %16, align 8, !tbaa !22
  %18 = getelementptr inbounds nuw i8, ptr %17, i64 8
  %19 = load i64, ptr %18, align 8, !tbaa !44
  %20 = call ptr @H5EA_open(ptr noundef %10, i64 noundef %19, ptr noundef nonnull %2) #11
  %21 = load ptr, ptr %16, align 8, !tbaa !22
  %22 = getelementptr inbounds nuw i8, ptr %21, i64 32
  store ptr %20, ptr %22, align 8, !tbaa !21
  %23 = icmp eq ptr %20, null
  br i1 %23, label %24, label %28

24:                                               ; preds = %9
  %25 = load i64, ptr @H5E_DATASET_g, align 8, !tbaa !10
  %26 = load i64, ptr @H5E_CANTINIT_g, align 8, !tbaa !10
  %27 = call i32 (ptr, ptr, i32, i64, i64, ptr, ...) @H5E_printf_stack(ptr noundef nonnull @.str.2, ptr noundef nonnull @__func__.H5D__earray_idx_open, i32 noundef 906, i64 noundef %25, i64 noundef %26, ptr noundef nonnull @.str.25) #11
  br label %39

28:                                               ; preds = %9
  %29 = load ptr, ptr %0, align 8, !tbaa !34
  %30 = call i32 @H5F_get_intent(ptr noundef %29) #11
  %31 = and i32 %30, 32
  %.not = icmp eq i32 %31, 0
  br i1 %.not, label %39, label %32

32:                                               ; preds = %28
  %33 = call fastcc i32 @H5D__earray_idx_depend(ptr noundef nonnull %0)
  %34 = icmp slt i32 %33, 0
  br i1 %34, label %35, label %39

35:                                               ; preds = %32
  %36 = load i64, ptr @H5E_DATASET_g, align 8, !tbaa !10
  %37 = load i64, ptr @H5E_CANTDEPEND_g, align 8, !tbaa !10
  %38 = call i32 (ptr, ptr, i32, i64, i64, ptr, ...) @H5E_printf_stack(ptr noundef nonnull @.str.2, ptr noundef nonnull @__func__.H5D__earray_idx_open, i32 noundef 912, i64 noundef %36, i64 noundef %37, ptr noundef nonnull @.str.20) #11
  br label %39

39:                                               ; preds = %24, %35, %32, %28, %1
  %.0 = phi i32 [ -1, %24 ], [ -1, %35 ], [ 0, %32 ], [ 0, %28 ], [ 0, %1 ]
  call void @llvm.lifetime.end.p0(i64 16, ptr nonnull %2) #11
  ret i32 %.0
}